; Function Attrs: mustprogress uwtable
define internal noundef zeroext i1 @_ZN32pxrInternal_v0_24__pxrReserved__12_GLOBAL__N_119_ExpandedDataSourceINS_10GfMatrix2dEE37GetContributingSampleTimesForIntervalEffPSt6vectorIfSaIfEE(ptr nocapture noundef nonnull readonly align 8 dereferenceable(128) %0, float noundef %1, float noundef %2, ptr noundef %3) unnamed_addr #0 align 2 {
  %5 = getelementptr inbounds nuw i8, ptr %0, i64 8
  %6 = load ptr, ptr %5, align 8
  %7 = load ptr, ptr %6, align 8
  %8 = getelementptr inbounds i8, ptr %7, i64 24
  %9 = load ptr, ptr %8, align 8
  %10 = tail call noundef zeroext i1 %9(ptr noundef nonnull align 8 dereferenceable(8) %6, float noundef %1, float noundef %2, ptr noundef %3)
  ret i1 %10
}